target datalayout = "e-m:e-p270:32:32-p271:32:32-p272:64:64-i64:64-i128:128-f80:128-n8:16:32:64-S128"
target triple = "x86_64-pc-linux-gnu"

%struct.H5O_loc_t = type { ptr, i64, i8 }

@H5O_init_g = external global i8, align 1
@H5_libterm_g = external global i8, align 1
@.str = private unnamed_addr constant [100 x i8] c"generated/home/dtcxzyw/WorkSpace/Projects/compilers/llvm-opt-benchmark/bench/hdf5/hdf5/src/H5Odbg.c\00", align 1
@H5E_FUNC_g = external global i64, align 8
@H5E_CANTINIT_g = external global i64, align 8
@.str.1 = private unnamed_addr constant [32 x i8] c"interface initialization failed\00", align 1
@H5E_OHDR_g = external global i64, align 8
@__func__.H5O_debug = private unnamed_addr constant [10 x i8] c"H5O_debug\00", align 1
@H5E_CANTPROTECT_g = external global i64, align 8
@.str.74 = private unnamed_addr constant [29 x i8] c"unable to load object header\00", align 1
@H5E_SYSTEM_g = external global i64, align 8
@.str.75 = private unnamed_addr constant [23 x i8] c"debug dump call failed\00", align 1
@H5E_CANTUNPROTECT_g = external global i64, align 8
@.str.76 = private unnamed_addr constant [32 x i8] c"unable to release object header\00", align 1

; Function Attrs: nounwind uwtable
define i32 @H5O_debug(ptr noundef %0, i64 noundef %1, ptr noundef %2, i32 noundef %3, i32 noundef %4) #0 {
  %6 = alloca ptr, align 8
  %7 = alloca i64, align 8
  %8 = alloca ptr, align 8
  %9 = alloca i32, align 4
  %10 = alloca i32, align 4
  %11 = alloca ptr, align 8
  %12 = alloca %struct.H5O_loc_t, align 8
  %13 = alloca i32, align 4
  %14 = alloca i8, align 1
  store ptr %0, ptr %6, align 8, !tbaa !7
  store i64 %1, ptr %7, align 8, !tbaa !17
  store ptr %2, ptr %8, align 8, !tbaa !11
  store i32 %3, ptr %9, align 4, !tbaa !3
  store i32 %4, ptr %10, align 4, !tbaa !3
  call void @llvm.lifetime.start.p0(i64 8, ptr %11) #6
  store ptr null, ptr %11, align 8, !tbaa !24
  call void @llvm.lifetime.start.p0(i64 24, ptr %12) #6
  call void @llvm.lifetime.start.p0(i64 4, ptr %13) #6
  store i32 0, ptr %13, align 4, !tbaa !3
  call void @llvm.lifetime.start.p0(i64 1, ptr %14) #6
  store i8 0, ptr %14, align 1, !tbaa !13
  %15 = load i8, ptr @H5O_init_g, align 1, !tbaa !13, !range !15, !noundef !16
  %16 = trunc i8 %15 to i1
  br i1 %16, label %21, label %17

17:                                               ; preds = %5
  %18 = load i8, ptr @H5_libterm_g, align 1, !tbaa !13, !range !15, !noundef !16
  %19 = trunc i8 %18 to i1
  %20 = xor i1 %19, true
  br label %21

21:                                               ; preds = %17, %5
  %22 = phi i1 [ false, %5 ], [ %20, %17 ]
  %23 = xor i1 %22, true
  %24 = xor i1 %23, true
  %25 = zext i1 %24 to i32
  %26 = sext i32 %25 to i64
  %27 = call i64 @llvm.expect.i64(i64 %26, i64 0)
  %28 = icmp ne i64 %27, 0
  br i1 %28, label %29, label %52

29:                                               ; preds = %21
  store i8 1, ptr @H5O_init_g, align 1, !tbaa !13
  %30 = call i32 @H5O__init_package()
  %31 = icmp slt i32 %30, 0
  br i1 %31, label %32, label %51

32:                                               ; preds = %29
  store i8 0, ptr @H5O_init_g, align 1, !tbaa !13
  br label %33

33:                                               ; preds = %32
  br label %34

34:                                               ; preds = %33
  br label %35

35:                                               ; preds = %34
  %36 = load i64, ptr @H5E_FUNC_g, align 8, !tbaa !17
  %37 = load i64, ptr @H5E_CANTINIT_g, align 8, !tbaa !17
  %38 = call i32 (ptr, ptr, i32, i64, i64, ptr, ...) @H5E_printf_stack(ptr noundef @.str, ptr noundef @__func__.H5O_debug, i32 noundef 507, i64 noundef %36, i64 noundef %37, ptr noundef @.str.1)
  br label %39

39:                                               ; preds = %35
  br label %40

40:                                               ; preds = %39
  store i8 1, ptr %14, align 1, !tbaa !13
  %41 = load i8, ptr %14, align 1, !tbaa !13, !range !15, !noundef !16
  %42 = trunc i8 %41 to i1
  %43 = zext i1 %42 to i8
  store i8 %43, ptr %14, align 1, !tbaa !13
  br label %44

44:                                               ; preds = %40
  br label %45

45:                                               ; preds = %44
  br label %46

46:                                               ; preds = %45
  store i32 -1, ptr %13, align 4, !tbaa !3
  br label %123

47:                                               ; No predecessors!
  br label %48

48:                                               ; preds = %47
  br label %49

49:                                               ; preds = %48
  br label %50

50:                                               ; preds = %49
  br label %51

51:                                               ; preds = %50, %29
  br label %52

52:                                               ; preds = %51, %21
  %53 = load i8, ptr @H5O_init_g, align 1, !tbaa !13, !range !15, !noundef !16
  %54 = trunc i8 %53 to i1
  br i1 %54, label %59, label %55

55:                                               ; preds = %52
  %56 = load i8, ptr @H5_libterm_g, align 1, !tbaa !13, !range !15, !noundef !16
  %57 = trunc i8 %56 to i1
  %58 = xor i1 %57, true
  br label %59

59:                                               ; preds = %55, %52
  %60 = phi i1 [ true, %52 ], [ %58, %55 ]
  %61 = xor i1 %60, true
  %62 = xor i1 %61, true
  %63 = zext i1 %62 to i32
  %64 = sext i32 %63 to i64
  %65 = call i64 @llvm.expect.i64(i64 %64, i64 1)
  %66 = icmp ne i64 %65, 0
  br i1 %66, label %67, label %147

67:                                               ; preds = %59
  %68 = load ptr, ptr %6, align 8, !tbaa !7
  %69 = getelementptr inbounds nuw %struct.H5O_loc_t, ptr %12, i32 0, i32 0
  store ptr %68, ptr %69, align 8, !tbaa !80
  %70 = load i64, ptr %7, align 8, !tbaa !17
  %71 = getelementptr inbounds nuw %struct.H5O_loc_t, ptr %12, i32 0, i32 1
  store i64 %70, ptr %71, align 8, !tbaa !82
  %72 = getelementptr inbounds nuw %struct.H5O_loc_t, ptr %12, i32 0, i32 2
  store i8 0, ptr %72, align 8, !tbaa !83
  %73 = call ptr @H5O_protect(ptr noundef %12, i32 noundef 128, i1 noundef zeroext false)
  store ptr %73, ptr %11, align 8, !tbaa !24
  %74 = icmp eq ptr null, %73
  br i1 %74, label %75, label %94

75:                                               ; preds = %67
  br label %76

76:                                               ; preds = %75
  br label %77

77:                                               ; preds = %76
  br label %78

78:                                               ; preds = %77
  %79 = load i64, ptr @H5E_OHDR_g, align 8, !tbaa !17
  %80 = load i64, ptr @H5E_CANTPROTECT_g, align 8, !tbaa !17
  %81 = call i32 (ptr, ptr, i32, i64, i64, ptr, ...) @H5E_printf_stack(ptr noundef @.str, ptr noundef @__func__.H5O_debug, i32 noundef 522, i64 noundef %79, i64 noundef %80, ptr noundef @.str.74)
  br label %82

82:                                               ; preds = %78
  br label %83

83:                                               ; preds = %82
  store i8 1, ptr %14, align 1, !tbaa !13
  %84 = load i8, ptr %14, align 1, !tbaa !13, !range !15, !noundef !16
  %85 = trunc i8 %84 to i1
  %86 = zext i1 %85 to i8
  store i8 %86, ptr %14, align 1, !tbaa !13
  br label %87

87:                                               ; preds = %83
  br label %88

88:                                               ; preds = %87
  br label %89

89:                                               ; preds = %88
  store i32 -1, ptr %13, align 4, !tbaa !3
  br label %123

90:                                               ; No predecessors!
  br label %91

91:                                               ; preds = %90
  br label %92

92:                                               ; preds = %91
  br label %93

93:                                               ; preds = %92
  br label %94

94:                                               ; preds = %93, %67
  %95 = load ptr, ptr %6, align 8, !tbaa !7
  %96 = load ptr, ptr %11, align 8, !tbaa !24
  %97 = load i64, ptr %7, align 8, !tbaa !17
  %98 = load ptr, ptr %8, align 8, !tbaa !11
  %99 = load i32, ptr %9, align 4, !tbaa !3
  %100 = load i32, ptr %10, align 4, !tbaa !3
  %101 = call i32 @H5O__debug_real(ptr noundef %95, ptr noundef %96, i64 noundef %97, ptr noundef %98, i32 noundef %99, i32 noundef %100)
  %102 = icmp slt i32 %101, 0
  br i1 %102, label %103, label %122

103:                                              ; preds = %94
  br label %104

104:                                              ; preds = %103
  br label %105

105:                                              ; preds = %104
  br label %106

106:                                              ; preds = %105
  %107 = load i64, ptr @H5E_OHDR_g, align 8, !tbaa !17
  %108 = load i64, ptr @H5E_SYSTEM_g, align 8, !tbaa !17
  %109 = call i32 (ptr, ptr, i32, i64, i64, ptr, ...) @H5E_printf_stack(ptr noundef @.str, ptr noundef @__func__.H5O_debug, i32 noundef 526, i64 noundef %107, i64 noundef %108, ptr noundef @.str.75)
  br label %110

110:                                              ; preds = %106
  br label %111

111:                                              ; preds = %110
  store i8 1, ptr %14, align 1, !tbaa !13
  %112 = load i8, ptr %14, align 1, !tbaa !13, !range !15, !noundef !16
  %113 = trunc i8 %112 to i1
  %114 = zext i1 %113 to i8
  store i8 %114, ptr %14, align 1, !tbaa !13
  br label %115

115:                                              ; preds = %111
  br label %116

116:                                              ; preds = %115
  br label %117

117:                                              ; preds = %116
  store i32 -1, ptr %13, align 4, !tbaa !3
  br label %123

118:                                              ; No predecessors!
  br label %119

119:                                              ; preds = %118
  br label %120

120:                                              ; preds = %119
  br label %121

121:                                              ; preds = %120
  br label %122

122:                                              ; preds = %121, %94
  br label %123

123:                                              ; preds = %122, %117, %89, %46
  %124 = load ptr, ptr %11, align 8, !tbaa !24
  %125 = icmp ne ptr %124, null
  br i1 %125, label %126, label %146

126:                                              ; preds = %123
  %127 = load ptr, ptr %11, align 8, !tbaa !24
  %128 = call i32 @H5O_unprotect(ptr noundef %12, ptr noundef %127, i32 noundef 0)
  %129 = icmp slt i32 %128, 0
  br i1 %129, label %130, label %146

130:                                              ; preds = %126
  br label %131

131:                                              ; preds = %130
  br label %132

132:                                              ; preds = %131
  br label %133

133:                                              ; preds = %132
  %134 = load i64, ptr @H5E_OHDR_g, align 8, !tbaa !17
  %135 = load i64, ptr @H5E_CANTUNPROTECT_g, align 8, !tbaa !17
  %136 = call i32 (ptr, ptr, i32, i64, i64, ptr, ...) @H5E_printf_stack(ptr noundef @.str, ptr noundef @__func__.H5O_debug, i32 noundef 530, i64 noundef %134, i64 noundef %135, ptr noundef @.str.76)
  br label %137

137:                                              ; preds = %133
  br label %138

138:                                              ; preds = %137
  store i8 1, ptr %14, align 1, !tbaa !13
  %139 = load i8, ptr %14, align 1, !tbaa !13, !range !15, !noundef !16
  %140 = trunc i8 %139 to i1
  %141 = zext i1 %140 to i8
  store i8 %141, ptr %14, align 1, !tbaa !13
  br label %142

142:                                              ; preds = %138
  br label %143

143:                                              ; preds = %142
  store i32 -1, ptr %13, align 4, !tbaa !3
  br label %144

144:                                              ; preds = %143
  br label %145

145:                                              ; preds = %144
  br label %146

146:                                              ; preds = %145, %126, %123
  br label %147

147:                                              ; preds = %146, %59
  %148 = load i32, ptr %13, align 4, !tbaa !3
  call void @llvm.lifetime.end.p0(i64 1, ptr %14) #6
  call void @llvm.lifetime.end.p0(i64 4, ptr %13) #6
  call void @llvm.lifetime.end.p0(i64 24, ptr %12) #6
  call void @llvm.lifetime.end.p0(i64 8, ptr %11) #6
  ret i32 %148
}