; Function Attrs: nounwind uwtable
define range(i32 -1, 1) i32 @H5O_debug(ptr noundef %0, i64 noundef %1, ptr noundef %2, i32 noundef %3, i32 noundef %4) local_unnamed_addr #0 {
  %6 = alloca %struct.H5O_loc_t, align 8
  call void @llvm.lifetime.start.p0(i64 24, ptr nonnull %6) #8
  %7 = load i8, ptr @H5O_init_g, align 1, !tbaa !3, !range !7, !noundef !8
  %8 = trunc nuw i8 %7 to i1
  %9 = load i8, ptr @H5_libterm_g, align 1, !range !7
  %10 = trunc nuw i8 %9 to i1
  %11 = select i1 %8, i1 true, i1 %10
  br i1 %11, label %19, label %12, !prof !9

12:                                               ; preds = %5
  store i8 1, ptr @H5O_init_g, align 1, !tbaa !3
  %13 = tail call i32 @H5O__init_package() #8
  %14 = icmp slt i32 %13, 0
  br i1 %14, label %15, label %._crit_edge

._crit_edge:                                      ; preds = %12
  %.pre = load i8, ptr @H5O_init_g, align 1, !tbaa !3, !range !7
  %.pre20 = load i8, ptr @H5_libterm_g, align 1, !range !7
  %.pre21 = trunc nuw i8 %.pre to i1
  %.pre22 = trunc nuw i8 %.pre20 to i1
  br label %19

15:                                               ; preds = %12
  store i8 0, ptr @H5O_init_g, align 1, !tbaa !3
  %16 = load i64, ptr @H5E_FUNC_g, align 8, !tbaa !10
  %17 = load i64, ptr @H5E_CANTINIT_g, align 8, !tbaa !10
  %18 = tail call i32 (ptr, ptr, i32, i64, i64, ptr, ...) @H5E_printf_stack(ptr noundef nonnull @.str, ptr noundef nonnull @__func__.H5O_debug, i32 noundef 507, i64 noundef %16, i64 noundef %17, ptr noundef nonnull @.str.1) #8
  br label %.thread

19:                                               ; preds = %._crit_edge, %5
  %.pre-phi23 = phi i1 [ %.pre22, %._crit_edge ], [ %10, %5 ]
  %.pre-phi = phi i1 [ %.pre21, %._crit_edge ], [ %8, %5 ]
  %20 = xor i1 %.pre-phi23, true
  %21 = select i1 %.pre-phi, i1 true, i1 %20
  br i1 %21, label %22, label %.thread, !prof !9

22:                                               ; preds = %19
  store ptr %0, ptr %6, align 8, !tbaa !71
  %23 = getelementptr inbounds nuw i8, ptr %6, i64 8
  store i64 %1, ptr %23, align 8, !tbaa !73
  %24 = getelementptr inbounds nuw i8, ptr %6, i64 16
  store i8 0, ptr %24, align 8, !tbaa !74
  %25 = call ptr @H5O_protect(ptr noundef nonnull %6, i32 noundef 128, i1 noundef zeroext false) #8
  %26 = icmp eq ptr %25, null
  br i1 %26, label %27, label %31

27:                                               ; preds = %22
  %28 = load i64, ptr @H5E_OHDR_g, align 8, !tbaa !10
  %29 = load i64, ptr @H5E_CANTPROTECT_g, align 8, !tbaa !10
  %30 = call i32 (ptr, ptr, i32, i64, i64, ptr, ...) @H5E_printf_stack(ptr noundef nonnull @.str, ptr noundef nonnull @__func__.H5O_debug, i32 noundef 522, i64 noundef %28, i64 noundef %29, ptr noundef nonnull @.str.74) #8
  br label %.thread

31:                                               ; preds = %22
  %32 = call i32 @H5O__debug_real(ptr noundef %0, ptr noundef nonnull %25, i64 noundef %1, ptr noundef %2, i32 noundef %3, i32 noundef %4)
  %33 = icmp slt i32 %32, 0
  br i1 %33, label %34, label %38

34:                                               ; preds = %31
  %35 = load i64, ptr @H5E_OHDR_g, align 8, !tbaa !10
  %36 = load i64, ptr @H5E_SYSTEM_g, align 8, !tbaa !10
  %37 = call i32 (ptr, ptr, i32, i64, i64, ptr, ...) @H5E_printf_stack(ptr noundef nonnull @.str, ptr noundef nonnull @__func__.H5O_debug, i32 noundef 526, i64 noundef %35, i64 noundef %36, ptr noundef nonnull @.str.75) #8
  br label %38

38:                                               ; preds = %34, %31
  %.0 = phi i32 [ -1, %34 ], [ 0, %31 ]
  %39 = call i32 @H5O_unprotect(ptr noundef nonnull %6, ptr noundef nonnull %25, i32 noundef 0) #8
  %40 = icmp slt i32 %39, 0
  br i1 %40, label %41, label %.thread

41:                                               ; preds = %38
  %42 = load i64, ptr @H5E_OHDR_g, align 8, !tbaa !10
  %43 = load i64, ptr @H5E_CANTUNPROTECT_g, align 8, !tbaa !10
  %44 = call i32 (ptr, ptr, i32, i64, i64, ptr, ...) @H5E_printf_stack(ptr noundef nonnull @.str, ptr noundef nonnull @__func__.H5O_debug, i32 noundef 530, i64 noundef %42, i64 noundef %43, ptr noundef nonnull @.str.76) #8
  br label %.thread

.thread:                                          ; preds = %27, %15, %38, %41, %19
  %.1 = phi i32 [ -1, %41 ], [ %.0, %38 ], [ 0, %19 ], [ -1, %15 ], [ -1, %27 ]
  call void @llvm.lifetime.end.p0(i64 24, ptr nonnull %6) #8
  ret i32 %.1
}